; Function Attrs: mustprogress nofree nosync nounwind memory(readwrite, inaccessiblemem: none) uwtable
define void @_ZN8proxygen7huffman8HuffTreeC2EPKjPKh(ptr nocapture noundef nonnull align 8 dereferenceable(23576) %this, ptr noundef %codes, ptr noundef %bits) unnamed_addr #0 align 2 {
entry:
  store i32 0, ptr %this, align 8
  %codes_ = getelementptr inbounds i8, ptr %this, i64 8
  store ptr %codes, ptr %codes_, align 8
  %bits_ = getelementptr inbounds i8, ptr %this, i64 16
  store ptr %bits, ptr %bits_, align 8
  br label %arrayctor.loop

arrayctor.loop:                                   ; preds = %_ZN8proxygen7huffman13SuperHuffNodeC2Ev.exit, %entry
  %arrayctor.cur.idx = phi i64 [ 24, %entry ], [ %arrayctor.cur.add, %_ZN8proxygen7huffman13SuperHuffNodeC2Ev.exit ]
  %arrayctor.cur.ptr = getelementptr inbounds i8, ptr %this, i64 %arrayctor.cur.idx
  br label %arrayctor.loop.i

arrayctor.loop.i:                                 ; preds = %arrayctor.loop.i, %arrayctor.loop
  %arrayctor.cur.idx.i = phi i64 [ 0, %arrayctor.loop ], [ %arrayctor.cur.add.i, %arrayctor.loop.i ]
  %arrayctor.cur.ptr.i = getelementptr inbounds i8, ptr %arrayctor.cur.ptr, i64 %arrayctor.cur.idx.i
  store i8 0, ptr %arrayctor.cur.ptr.i, align 2
  %metadata.i.i = getelementptr inbounds i8, ptr %arrayctor.cur.ptr.i, i64 1
  %bf.load.i.i = load i8, ptr %metadata.i.i, align 1
  %bf.clear3.i.i = and i8 %bf.load.i.i, -32
  store i8 %bf.clear3.i.i, ptr %metadata.i.i, align 1
  %arrayctor.cur.add.i = add nuw nsw i64 %arrayctor.cur.idx.i, 2
  %arrayctor.done.i = icmp eq i64 %arrayctor.cur.add.i, 512
  br i1 %arrayctor.done.i, label %_ZN8proxygen7huffman13SuperHuffNodeC2Ev.exit, label %arrayctor.loop.i

_ZN8proxygen7huffman13SuperHuffNodeC2Ev.exit:     ; preds = %arrayctor.loop.i
  %arrayctor.cur.add = add nuw nsw i64 %arrayctor.cur.idx, 512
  %arrayctor.done = icmp eq i64 %arrayctor.cur.add, 23576
  br i1 %arrayctor.done, label %arrayctor.cont, label %arrayctor.loop

arrayctor.cont:                                   ; preds = %_ZN8proxygen7huffman13SuperHuffNodeC2Ev.exit
  %table_.i.i = getelementptr inbounds i8, ptr %this, i64 24
  br label %for.body.i

for.body.i:                                       ; preds = %_ZN8proxygen7huffman8HuffTree6insertEjhh.exit.i, %arrayctor.cont
  %indvars.iv.i = phi i64 [ 0, %arrayctor.cont ], [ %indvars.iv.next.i, %_ZN8proxygen7huffman8HuffTree6insertEjhh.exit.i ]
  %0 = load ptr, ptr %codes_, align 8
  %arrayidx.i = getelementptr inbounds i32, ptr %0, i64 %indvars.iv.i
  %1 = load i32, ptr %arrayidx.i, align 4
  %2 = load ptr, ptr %bits_, align 8
  %arrayidx3.i = getelementptr inbounds i8, ptr %2, i64 %indvars.iv.i
  %3 = load i8, ptr %arrayidx3.i, align 1
  %conv.i = trunc i64 %indvars.iv.i to i8
  %cmp15.i.i = icmp ugt i8 %3, 8
  br i1 %cmp15.i.i, label %while.body.i.i, label %_ZN8proxygen7huffman8HuffTree6insertEjhh.exit.i

while.body.i.i:                                   ; preds = %for.body.i, %if.end.i.i
  %code.addr.018.i.i = phi i32 [ %and21.i.i, %if.end.i.i ], [ %1, %for.body.i ]
  %bits.addr.017.i.i = phi i8 [ %conv20.i.i, %if.end.i.i ], [ %3, %for.body.i ]
  %snode.016.i.i = phi ptr [ %arrayidx17.i.i, %if.end.i.i ], [ %table_.i.i, %for.body.i ]
  %conv.i.i = zext i8 %bits.addr.017.i.i to i32
  %sub.i.i = add nsw i32 %conv.i.i, -8
  %shl.i.i = shl i32 255, %sub.i.i
  %and.i.i = and i32 %shl.i.i, %code.addr.018.i.i
  %shr.i.i = lshr i32 %and.i.i, %sub.i.i
  %idxprom.i.i = zext nneg i32 %shr.i.i to i64
  %arrayidx5.i.i = getelementptr inbounds [256 x %"struct.proxygen::huffman::HuffNode"], ptr %snode.016.i.i, i64 0, i64 %idxprom.i.i
  %metadata.i.i.i = getelementptr inbounds i8, ptr %arrayidx5.i.i, i64 1
  %bf.load.i.i.i = load i8, ptr %metadata.i.i.i, align 1
  %4 = and i8 %bf.load.i.i.i, 16
  %bf.cast.not.i.i.i = icmp eq i8 %4, 0
  br i1 %bf.cast.not.i.i.i, label %if.then.i.i, label %while.body.if.end_crit_edge.i.i

while.body.if.end_crit_edge.i.i:                  ; preds = %while.body.i.i
  %.pre.i.i = load i8, ptr %arrayidx5.i.i, align 1
  br label %if.end.i.i

if.then.i.i:                                      ; preds = %while.body.i.i
  %5 = load i32, ptr %this, align 8
  %inc.i.i = add i32 %5, 1
  store i32 %inc.i.i, ptr %this, align 8
  %bf.load.i.i1 = load i8, ptr %metadata.i.i.i, align 1
  %bf.set.i.i = or i8 %bf.load.i.i1, 16
  store i8 %bf.set.i.i, ptr %metadata.i.i.i, align 1
  %6 = load i32, ptr %this, align 8
  %conv10.i.i = trunc i32 %6 to i8
  store i8 %conv10.i.i, ptr %arrayidx5.i.i, align 1
  br label %if.end.i.i

if.end.i.i:                                       ; preds = %if.then.i.i, %while.body.if.end_crit_edge.i.i
  %7 = phi i8 [ %.pre.i.i, %while.body.if.end_crit_edge.i.i ], [ %conv10.i.i, %if.then.i.i ]
  %idxprom16.i.i = zext i8 %7 to i64
  %arrayidx17.i.i = getelementptr inbounds [46 x %"struct.proxygen::huffman::SuperHuffNode"], ptr %table_.i.i, i64 0, i64 %idxprom16.i.i
  %conv20.i.i = trunc i32 %sub.i.i to i8
  %not.i.i = xor i32 %shl.i.i, -1
  %and21.i.i = and i32 %code.addr.018.i.i, %not.i.i
  %cmp.i.i = icmp ugt i8 %conv20.i.i, 8
  br i1 %cmp.i.i, label %while.body.i.i, label %_ZN8proxygen7huffman8HuffTree6insertEjhh.exit.i, !llvm.loop !4

_ZN8proxygen7huffman8HuffTree6insertEjhh.exit.i:  ; preds = %if.end.i.i, %for.body.i
  %snode.0.lcssa.i.i = phi ptr [ %table_.i.i, %for.body.i ], [ %arrayidx17.i.i, %if.end.i.i ]
  %bits.addr.0.lcssa.i.i = phi i8 [ %3, %for.body.i ], [ %conv20.i.i, %if.end.i.i ]
  %code.addr.0.lcssa.i.i = phi i32 [ %1, %for.body.i ], [ %and21.i.i, %if.end.i.i ]
  tail call void @_ZN8proxygen7huffman8HuffTree9fillIndexERNS0_13SuperHuffNodeEjhhh(ptr noundef nonnull align 8 dereferenceable(23576) %this, ptr noundef nonnull align 1 dereferenceable(512) %snode.0.lcssa.i.i, i32 noundef %code.addr.0.lcssa.i.i, i8 noundef zeroext %bits.addr.0.lcssa.i.i, i8 noundef zeroext %conv.i, i8 noundef zeroext %bits.addr.0.lcssa.i.i)
  %indvars.iv.next.i = add nuw nsw i64 %indvars.iv.i, 1
  %exitcond.not.i = icmp eq i64 %indvars.iv.next.i, 256
  br i1 %exitcond.not.i, label %_ZN8proxygen7huffman8HuffTree9buildTreeEv.exit, label %for.body.i, !llvm.loop !6

_ZN8proxygen7huffman8HuffTree9buildTreeEv.exit:   ; preds = %_ZN8proxygen7huffman8HuffTree6insertEjhh.exit.i
  ret void
}